target datalayout = "e-m:e-p270:32:32-p271:32:32-p272:64:64-i64:64-i128:128-f80:128-n8:16:32:64-S128"
target triple = "x86_64-pc-linux-gnu"

%union.anon.1 = type { i64 }
%struct.EbmlBin = type { i32, ptr, ptr, i64 }
%struct.EbmlList = type { i32, i32, ptr }
%struct.EbmlSyntax = type { i32, i8, i8, i64, i64, %union.anon.1 }

; Function Attrs: nounwind uwtable
define internal void @ebml_free(ptr noundef %0, ptr noundef %1) #0 {
  %3 = alloca ptr, align 8
  %4 = alloca ptr, align 8
  %5 = alloca i32, align 4
  %6 = alloca i32, align 4
  %7 = alloca ptr, align 8
  %8 = alloca ptr, align 8
  %9 = alloca ptr, align 8
  store ptr %0, ptr %3, align 8, !tbaa !228
  store ptr %1, ptr %4, align 8, !tbaa !230
  call void @llvm.lifetime.start.p0(i64 4, ptr %5) #14
  call void @llvm.lifetime.start.p0(i64 4, ptr %6) #14
  store i32 0, ptr %5, align 4, !tbaa !9
  br label %10

10:                                               ; preds = %95, %2
  %11 = load ptr, ptr %3, align 8, !tbaa !228
  %12 = load i32, ptr %5, align 4, !tbaa !9
  %13 = sext i32 %12 to i64
  %14 = getelementptr inbounds %struct.EbmlSyntax, ptr %11, i64 %13
  %15 = getelementptr inbounds nuw %struct.EbmlSyntax, ptr %14, i32 0, i32 0
  %16 = load i32, ptr %15, align 8, !tbaa !233
  %17 = icmp ne i32 %16, 0
  br i1 %17, label %18, label %98

18:                                               ; preds = %10
  call void @llvm.lifetime.start.p0(i64 8, ptr %7) #14
  %19 = load ptr, ptr %4, align 8, !tbaa !230
  %20 = load ptr, ptr %3, align 8, !tbaa !228
  %21 = load i32, ptr %5, align 4, !tbaa !9
  %22 = sext i32 %21 to i64
  %23 = getelementptr inbounds %struct.EbmlSyntax, ptr %20, i64 %22
  %24 = getelementptr inbounds nuw %struct.EbmlSyntax, ptr %23, i32 0, i32 4
  %25 = load i64, ptr %24, align 8, !tbaa !236
  %26 = getelementptr inbounds nuw i8, ptr %19, i64 %25
  store ptr %26, ptr %7, align 8, !tbaa !230
  %27 = load ptr, ptr %3, align 8, !tbaa !228
  %28 = load i32, ptr %5, align 4, !tbaa !9
  %29 = sext i32 %28 to i64
  %30 = getelementptr inbounds %struct.EbmlSyntax, ptr %27, i64 %29
  %31 = getelementptr inbounds nuw %struct.EbmlSyntax, ptr %30, i32 0, i32 1
  %32 = load i8, ptr %31, align 4, !tbaa !238
  %33 = zext i8 %32 to i32
  switch i32 %33, label %93 [
    i32 4, label %34
    i32 5, label %34
    i32 6, label %36
    i32 8, label %39
    i32 7, label %39
  ]

34:                                               ; preds = %18, %18
  %35 = load ptr, ptr %7, align 8, !tbaa !230
  call void @av_freep(ptr noundef %35)
  br label %94

36:                                               ; preds = %18
  %37 = load ptr, ptr %7, align 8, !tbaa !230
  %38 = getelementptr inbounds nuw %struct.EbmlBin, ptr %37, i32 0, i32 1
  call void @av_buffer_unref(ptr noundef %38)
  br label %94

39:                                               ; preds = %18, %18
  %40 = load ptr, ptr %3, align 8, !tbaa !228
  %41 = load i32, ptr %5, align 4, !tbaa !9
  %42 = sext i32 %41 to i64
  %43 = getelementptr inbounds %struct.EbmlSyntax, ptr %40, i64 %42
  %44 = getelementptr inbounds nuw %struct.EbmlSyntax, ptr %43, i32 0, i32 3
  %45 = load i64, ptr %44, align 8, !tbaa !237
  %46 = icmp ne i64 %45, 0
  br i1 %46, label %47, label %84

47:                                               ; preds = %39
  call void @llvm.lifetime.start.p0(i64 8, ptr %8) #14
  %48 = load ptr, ptr %7, align 8, !tbaa !230
  store ptr %48, ptr %8, align 8, !tbaa !77
  call void @llvm.lifetime.start.p0(i64 8, ptr %9) #14
  %49 = load ptr, ptr %8, align 8, !tbaa !77
  %50 = getelementptr inbounds nuw %struct.EbmlList, ptr %49, i32 0, i32 2
  %51 = load ptr, ptr %50, align 8, !tbaa !102
  store ptr %51, ptr %9, align 8, !tbaa !44
  store i32 0, ptr %6, align 4, !tbaa !9
  br label %52

52:                                               ; preds = %66, %47
  %53 = load i32, ptr %6, align 4, !tbaa !9
  %54 = load ptr, ptr %8, align 8, !tbaa !77
  %55 = getelementptr inbounds nuw %struct.EbmlList, ptr %54, i32 0, i32 0
  %56 = load i32, ptr %55, align 8, !tbaa !105
  %57 = icmp slt i32 %53, %56
  br i1 %57, label %58, label %77

58:                                               ; preds = %52
  %59 = load ptr, ptr %3, align 8, !tbaa !228
  %60 = load i32, ptr %5, align 4, !tbaa !9
  %61 = sext i32 %60 to i64
  %62 = getelementptr inbounds %struct.EbmlSyntax, ptr %59, i64 %61
  %63 = getelementptr inbounds nuw %struct.EbmlSyntax, ptr %62, i32 0, i32 5
  %64 = load ptr, ptr %63, align 8, !tbaa !69
  %65 = load ptr, ptr %9, align 8, !tbaa !44
  call void @ebml_free(ptr noundef %64, ptr noundef %65)
  br label %66

66:                                               ; preds = %58
  %67 = load i32, ptr %6, align 4, !tbaa !9
  %68 = add nsw i32 %67, 1
  store i32 %68, ptr %6, align 4, !tbaa !9
  %69 = load ptr, ptr %3, align 8, !tbaa !228
  %70 = load i32, ptr %5, align 4, !tbaa !9
  %71 = sext i32 %70 to i64
  %72 = getelementptr inbounds %struct.EbmlSyntax, ptr %69, i64 %71
  %73 = getelementptr inbounds nuw %struct.EbmlSyntax, ptr %72, i32 0, i32 3
  %74 = load i64, ptr %73, align 8, !tbaa !237
  %75 = load ptr, ptr %9, align 8, !tbaa !44
  %76 = getelementptr inbounds nuw i8, ptr %75, i64 %74
  store ptr %76, ptr %9, align 8, !tbaa !44
  br label %52, !llvm.loop !302

77:                                               ; preds = %52
  %78 = load ptr, ptr %8, align 8, !tbaa !77
  %79 = getelementptr inbounds nuw %struct.EbmlList, ptr %78, i32 0, i32 2
  call void @av_freep(ptr noundef %79)
  %80 = load ptr, ptr %8, align 8, !tbaa !77
  %81 = getelementptr inbounds nuw %struct.EbmlList, ptr %80, i32 0, i32 0
  store i32 0, ptr %81, align 8, !tbaa !105
  %82 = load ptr, ptr %8, align 8, !tbaa !77
  %83 = getelementptr inbounds nuw %struct.EbmlList, ptr %82, i32 0, i32 1
  store i32 0, ptr %83, align 4, !tbaa !303
  call void @llvm.lifetime.end.p0(i64 8, ptr %9) #14
  call void @llvm.lifetime.end.p0(i64 8, ptr %8) #14
  br label %92

84:                                               ; preds = %39
  %85 = load ptr, ptr %3, align 8, !tbaa !228
  %86 = load i32, ptr %5, align 4, !tbaa !9
  %87 = sext i32 %86 to i64
  %88 = getelementptr inbounds %struct.EbmlSyntax, ptr %85, i64 %87
  %89 = getelementptr inbounds nuw %struct.EbmlSyntax, ptr %88, i32 0, i32 5
  %90 = load ptr, ptr %89, align 8, !tbaa !69
  %91 = load ptr, ptr %7, align 8, !tbaa !230
  call void @ebml_free(ptr noundef %90, ptr noundef %91)
  br label %92

92:                                               ; preds = %84, %77
  br label %93

93:                                               ; preds = %18, %92
  br label %94

94:                                               ; preds = %93, %36, %34
  call void @llvm.lifetime.end.p0(i64 8, ptr %7) #14
  br label %95

95:                                               ; preds = %94
  %96 = load i32, ptr %5, align 4, !tbaa !9
  %97 = add nsw i32 %96, 1
  store i32 %97, ptr %5, align 4, !tbaa !9
  br label %10, !llvm.loop !304

98:                                               ; preds = %10
  call void @llvm.lifetime.end.p0(i64 4, ptr %6) #14
  call void @llvm.lifetime.end.p0(i64 4, ptr %5) #14
  ret void
}