; Function Attrs: nounwind uwtable
define internal fastcc void @ebml_free(ptr noundef readonly captures(none) %0, ptr noundef %1) unnamed_addr #0 {
  %3 = load i32, ptr %0, align 8, !tbaa !398
  %.not33 = icmp eq i32 %3, 0
  br i1 %.not33, label %._crit_edge37, label %.lr.ph36

.lr.ph36:                                         ; preds = %2, %33
  %indvars.iv = phi i64 [ %indvars.iv.next, %33 ], [ 0, %2 ]
  %4 = getelementptr inbounds nuw %struct.EbmlSyntax, ptr %0, i64 %indvars.iv
  %5 = getelementptr inbounds nuw i8, ptr %4, i64 16
  %6 = load i64, ptr %5, align 8, !tbaa !402
  %7 = getelementptr inbounds nuw i8, ptr %1, i64 %6
  %8 = getelementptr inbounds nuw i8, ptr %4, i64 4
  %9 = load i8, ptr %8, align 4, !tbaa !404
  switch i8 %9, label %33 [
    i8 4, label %10
    i8 5, label %10
    i8 6, label %11
    i8 8, label %13
    i8 7, label %13
  ]

10:                                               ; preds = %.lr.ph36, %.lr.ph36
  tail call void @av_freep(ptr noundef %7) #15
  br label %33

11:                                               ; preds = %.lr.ph36
  %12 = getelementptr inbounds nuw i8, ptr %7, i64 8
  tail call void @av_buffer_unref(ptr noundef nonnull %12) #15
  br label %33

13:                                               ; preds = %.lr.ph36, %.lr.ph36
  %14 = getelementptr inbounds nuw i8, ptr %4, i64 8
  %15 = load i64, ptr %14, align 8, !tbaa !403
  %.not30 = icmp eq i64 %15, 0
  br i1 %.not30, label %30, label %16

16:                                               ; preds = %13
  %17 = getelementptr inbounds nuw i8, ptr %7, i64 8
  %18 = load i32, ptr %7, align 8, !tbaa !53
  %19 = icmp sgt i32 %18, 0
  br i1 %19, label %.lr.ph, label %._crit_edge

.lr.ph:                                           ; preds = %16
  %20 = load ptr, ptr %17, align 8, !tbaa !52
  %21 = getelementptr inbounds nuw i8, ptr %4, i64 24
  br label %22

22:                                               ; preds = %.lr.ph, %22
  %.032 = phi ptr [ %20, %.lr.ph ], [ %26, %22 ]
  %.02931 = phi i32 [ 0, %.lr.ph ], [ %24, %22 ]
  %23 = load ptr, ptr %21, align 8, !tbaa !119
  tail call fastcc void @ebml_free(ptr noundef %23, ptr noundef %.032)
  %24 = add nuw nsw i32 %.02931, 1
  %25 = load i64, ptr %14, align 8, !tbaa !403
  %26 = getelementptr inbounds nuw i8, ptr %.032, i64 %25
  %27 = load i32, ptr %7, align 8, !tbaa !53
  %28 = icmp slt i32 %24, %27
  br i1 %28, label %22, label %._crit_edge, !llvm.loop !453

._crit_edge:                                      ; preds = %22, %16
  tail call void @av_freep(ptr noundef nonnull %17) #15
  store i32 0, ptr %7, align 8, !tbaa !53
  %29 = getelementptr inbounds nuw i8, ptr %7, i64 4
  store i32 0, ptr %29, align 4, !tbaa !454
  br label %33

30:                                               ; preds = %13
  %31 = getelementptr inbounds nuw i8, ptr %4, i64 24
  %32 = load ptr, ptr %31, align 8, !tbaa !119
  tail call fastcc void @ebml_free(ptr noundef %32, ptr noundef %7)
  br label %33

33:                                               ; preds = %.lr.ph36, %30, %._crit_edge, %11, %10
  %indvars.iv.next = add nuw nsw i64 %indvars.iv, 1
  %34 = getelementptr inbounds nuw %struct.EbmlSyntax, ptr %0, i64 %indvars.iv.next
  %35 = load i32, ptr %34, align 8, !tbaa !398
  %.not = icmp eq i32 %35, 0
  br i1 %.not, label %._crit_edge37, label %.lr.ph36, !llvm.loop !455

._crit_edge37:                                    ; preds = %33, %2
  ret void
}